target datalayout = "e-m:e-p270:32:32-p271:32:32-p272:64:64-i64:64-i128:128-f80:128-n8:16:32:64-S128"
target triple = "x86_64-pc-linux-gnu"

%struct.vtx_data = type { i64, ptr, ptr, ptr, ptr }

@stderr = external global ptr, align 8
@.str = private unnamed_addr constant [58 x i8] c"integer overflow when trying to allocate %zu * %zu bytes\0A\00", align 1
@.str.1 = private unnamed_addr constant [49 x i8] c"out of memory when trying to allocate %zu bytes\0A\00", align 1

; Function Attrs: nounwind uwtable
define void @empty_neighbors_vec(ptr noundef %0, i32 noundef %1, ptr noundef %2) #0 {
  %4 = alloca ptr, align 8
  %5 = alloca i32, align 4
  %6 = alloca ptr, align 8
  %7 = alloca i64, align 8
  store ptr %0, ptr %4, align 8, !tbaa !3
  store i32 %1, ptr %5, align 4, !tbaa !7
  store ptr %2, ptr %6, align 8, !tbaa !9
  call void @llvm.lifetime.start.p0(i64 8, ptr %7) #9
  store i64 1, ptr %7, align 8, !tbaa !11
  br label %8

8:                                                ; preds = %31, %3
  %9 = load i64, ptr %7, align 8, !tbaa !11
  %10 = load ptr, ptr %4, align 8, !tbaa !3
  %11 = load i32, ptr %5, align 4, !tbaa !7
  %12 = sext i32 %11 to i64
  %13 = getelementptr inbounds %struct.vtx_data, ptr %10, i64 %12
  %14 = getelementptr inbounds nuw %struct.vtx_data, ptr %13, i32 0, i32 0
  %15 = load i64, ptr %14, align 8, !tbaa !13
  %16 = icmp ult i64 %9, %15
  br i1 %16, label %18, label %17

17:                                               ; preds = %8
  call void @llvm.lifetime.end.p0(i64 8, ptr %7) #9
  br label %34

18:                                               ; preds = %8
  %19 = load ptr, ptr %6, align 8, !tbaa !9
  %20 = load ptr, ptr %4, align 8, !tbaa !3
  %21 = load i32, ptr %5, align 4, !tbaa !7
  %22 = sext i32 %21 to i64
  %23 = getelementptr inbounds %struct.vtx_data, ptr %20, i64 %22
  %24 = getelementptr inbounds nuw %struct.vtx_data, ptr %23, i32 0, i32 1
  %25 = load ptr, ptr %24, align 8, !tbaa !16
  %26 = load i64, ptr %7, align 8, !tbaa !11
  %27 = getelementptr inbounds nuw i32, ptr %25, i64 %26
  %28 = load i32, ptr %27, align 4, !tbaa !7
  %29 = sext i32 %28 to i64
  %30 = getelementptr inbounds i32, ptr %19, i64 %29
  store i32 0, ptr %30, align 4, !tbaa !7
  br label %31

31:                                               ; preds = %18
  %32 = load i64, ptr %7, align 8, !tbaa !11
  %33 = add i64 %32, 1
  store i64 %33, ptr %7, align 8, !tbaa !11
  br label %8, !llvm.loop !20

34:                                               ; preds = %17
  ret void
}

; Function Attrs: nounwind uwtable
define i64 @common_neighbors(ptr noundef %0, i32 noundef %1, ptr noundef %2) #0 {
  %4 = alloca ptr, align 8
  %5 = alloca i32, align 4
  %6 = alloca ptr, align 8
  %7 = alloca i32, align 4
  %8 = alloca i64, align 8
  %9 = alloca i64, align 8
  store ptr %0, ptr %4, align 8, !tbaa !3
  store i32 %1, ptr %5, align 4, !tbaa !7
  store ptr %2, ptr %6, align 8, !tbaa !9
  call void @llvm.lifetime.start.p0(i64 4, ptr %7) #9
  call void @llvm.lifetime.start.p0(i64 8, ptr %8) #9
  store i64 0, ptr %8, align 8, !tbaa !11
  call void @llvm.lifetime.start.p0(i64 8, ptr %9) #9
  store i64 1, ptr %9, align 8, !tbaa !11
  br label %10

10:                                               ; preds = %40, %3
  %11 = load i64, ptr %9, align 8, !tbaa !11
  %12 = load ptr, ptr %4, align 8, !tbaa !3
  %13 = load i32, ptr %5, align 4, !tbaa !7
  %14 = sext i32 %13 to i64
  %15 = getelementptr inbounds %struct.vtx_data, ptr %12, i64 %14
  %16 = getelementptr inbounds nuw %struct.vtx_data, ptr %15, i32 0, i32 0
  %17 = load i64, ptr %16, align 8, !tbaa !13
  %18 = icmp ult i64 %11, %17
  br i1 %18, label %20, label %19

19:                                               ; preds = %10
  call void @llvm.lifetime.end.p0(i64 8, ptr %9) #9
  br label %43

20:                                               ; preds = %10
  %21 = load ptr, ptr %4, align 8, !tbaa !3
  %22 = load i32, ptr %5, align 4, !tbaa !7
  %23 = sext i32 %22 to i64
  %24 = getelementptr inbounds %struct.vtx_data, ptr %21, i64 %23
  %25 = getelementptr inbounds nuw %struct.vtx_data, ptr %24, i32 0, i32 1
  %26 = load ptr, ptr %25, align 8, !tbaa !16
  %27 = load i64, ptr %9, align 8, !tbaa !11
  %28 = getelementptr inbounds nuw i32, ptr %26, i64 %27
  %29 = load i32, ptr %28, align 4, !tbaa !7
  store i32 %29, ptr %7, align 4, !tbaa !7
  %30 = load ptr, ptr %6, align 8, !tbaa !9
  %31 = load i32, ptr %7, align 4, !tbaa !7
  %32 = sext i32 %31 to i64
  %33 = getelementptr inbounds i32, ptr %30, i64 %32
  %34 = load i32, ptr %33, align 4, !tbaa !7
  %35 = icmp sgt i32 %34, 0
  br i1 %35, label %36, label %39

36:                                               ; preds = %20
  %37 = load i64, ptr %8, align 8, !tbaa !11
  %38 = add i64 %37, 1
  store i64 %38, ptr %8, align 8, !tbaa !11
  br label %39

39:                                               ; preds = %36, %20
  br label %40

40:                                               ; preds = %39
  %41 = load i64, ptr %9, align 8, !tbaa !11
  %42 = add i64 %41, 1
  store i64 %42, ptr %9, align 8, !tbaa !11
  br label %10, !llvm.loop !17

43:                                               ; preds = %19
  %44 = load i64, ptr %8, align 8, !tbaa !11
  call void @llvm.lifetime.end.p0(i64 8, ptr %8) #9
  call void @llvm.lifetime.end.p0(i64 4, ptr %7) #9
  ret i64 %44
}

; Function Attrs: nounwind uwtable
define void @fill_neighbors_vec_unweighted(ptr noundef %0, i32 noundef %1, ptr noundef %2) #0 {
  %4 = alloca ptr, align 8
  %5 = alloca i32, align 4
  %6 = alloca ptr, align 8
  %7 = alloca i64, align 8
  store ptr %0, ptr %4, align 8, !tbaa !3
  store i32 %1, ptr %5, align 4, !tbaa !7
  store ptr %2, ptr %6, align 8, !tbaa !9
  call void @llvm.lifetime.start.p0(i64 8, ptr %7) #9
  store i64 1, ptr %7, align 8, !tbaa !11
  br label %8

8:                                                ; preds = %31, %3
  %9 = load i64, ptr %7, align 8, !tbaa !11
  %10 = load ptr, ptr %4, align 8, !tbaa !3
  %11 = load i32, ptr %5, align 4, !tbaa !7
  %12 = sext i32 %11 to i64
  %13 = getelementptr inbounds %struct.vtx_data, ptr %10, i64 %12
  %14 = getelementptr inbounds nuw %struct.vtx_data, ptr %13, i32 0, i32 0
  %15 = load i64, ptr %14, align 8, !tbaa !13
  %16 = icmp ult i64 %9, %15
  br i1 %16, label %18, label %17

17:                                               ; preds = %8
  call void @llvm.lifetime.end.p0(i64 8, ptr %7) #9
  br label %34

18:                                               ; preds = %8
  %19 = load ptr, ptr %6, align 8, !tbaa !9
  %20 = load ptr, ptr %4, align 8, !tbaa !3
  %21 = load i32, ptr %5, align 4, !tbaa !7
  %22 = sext i32 %21 to i64
  %23 = getelementptr inbounds %struct.vtx_data, ptr %20, i64 %22
  %24 = getelementptr inbounds nuw %struct.vtx_data, ptr %23, i32 0, i32 1
  %25 = load ptr, ptr %24, align 8, !tbaa !16
  %26 = load i64, ptr %7, align 8, !tbaa !11
  %27 = getelementptr inbounds nuw i32, ptr %25, i64 %26
  %28 = load i32, ptr %27, align 4, !tbaa !7
  %29 = sext i32 %28 to i64
  %30 = getelementptr inbounds i32, ptr %19, i64 %29
  store i32 1, ptr %30, align 4, !tbaa !7
  br label %31

31:                                               ; preds = %18
  %32 = load i64, ptr %7, align 8, !tbaa !11
  %33 = add i64 %32, 1
  store i64 %33, ptr %7, align 8, !tbaa !11
  br label %8, !llvm.loop !19

34:                                               ; preds = %17
  ret void
}

; Function Attrs: inlinehint nounwind uwtable
define internal ptr @gv_calloc(i64 noundef %0, i64 noundef %1) #4 {
  %3 = alloca i64, align 8
  %4 = alloca i64, align 8
  %5 = alloca ptr, align 8
  store i64 %0, ptr %3, align 8, !tbaa !11
  store i64 %1, ptr %4, align 8, !tbaa !11
  %6 = load i64, ptr %3, align 8, !tbaa !11
  %7 = icmp ugt i64 %6, 0
  br i1 %7, label %8, label %18

8:                                                ; preds = %2
  %9 = load i64, ptr %3, align 8, !tbaa !11
  %10 = udiv i64 -1, %9
  %11 = load i64, ptr %4, align 8, !tbaa !11
  %12 = icmp ult i64 %10, %11
  br i1 %12, label %13, label %18

13:                                               ; preds = %8
  %14 = load ptr, ptr @stderr, align 8, !tbaa !42
  %15 = load i64, ptr %3, align 8, !tbaa !11
  %16 = load i64, ptr %4, align 8, !tbaa !11
  %17 = call i32 (ptr, ptr, ...) @fprintf(ptr noundef %14, ptr noundef @.str, i64 noundef %15, i64 noundef %16) #9
  call void @graphviz_exit(i32 noundef 1) #10
  unreachable

18:                                               ; preds = %8, %2
  call void @llvm.lifetime.start.p0(i64 8, ptr %5) #9
  %19 = load i64, ptr %3, align 8, !tbaa !11
  %20 = load i64, ptr %4, align 8, !tbaa !11
  %21 = call noalias ptr @calloc(i64 noundef %19, i64 noundef %20) #11
  store ptr %21, ptr %5, align 8, !tbaa !3
  %22 = load i64, ptr %3, align 8, !tbaa !11
  %23 = icmp ugt i64 %22, 0
  br i1 %23, label %24, label %36

24:                                               ; preds = %18
  %25 = load i64, ptr %4, align 8, !tbaa !11
  %26 = icmp ugt i64 %25, 0
  br i1 %26, label %27, label %36

27:                                               ; preds = %24
  %28 = load ptr, ptr %5, align 8, !tbaa !3
  %29 = icmp eq ptr %28, null
  br i1 %29, label %30, label %36

30:                                               ; preds = %27
  %31 = load ptr, ptr @stderr, align 8, !tbaa !42
  %32 = load i64, ptr %3, align 8, !tbaa !11
  %33 = load i64, ptr %4, align 8, !tbaa !11
  %34 = mul i64 %32, %33
  %35 = call i32 (ptr, ptr, ...) @fprintf(ptr noundef %31, ptr noundef @.str.1, i64 noundef %34) #9
  call void @graphviz_exit(i32 noundef 1) #10
  unreachable

36:                                               ; preds = %27, %24, %18
  %37 = load ptr, ptr %5, align 8, !tbaa !3
  call void @llvm.lifetime.end.p0(i64 8, ptr %5) #9
  ret ptr %37
}

; Function Attrs: nounwind uwtable
define void @compute_new_weights(ptr noundef %0, i32 noundef %1) #0 {
  %3 = alloca ptr, align 8
  %4 = alloca i32, align 4
  %5 = alloca i32, align 4
  %6 = alloca i64, align 8
  %7 = alloca ptr, align 8
  %8 = alloca i64, align 8
  %9 = alloca i64, align 8
  %10 = alloca i32, align 4
  %11 = alloca ptr, align 8
  %12 = alloca i64, align 8
  store ptr %0, ptr %3, align 8, !tbaa !3
  store i32 %1, ptr %4, align 4, !tbaa !7
  call void @llvm.lifetime.start.p0(i64 4, ptr %5) #9
  call void @llvm.lifetime.start.p0(i64 8, ptr %6) #9
  store i64 0, ptr %6, align 8, !tbaa !11
  call void @llvm.lifetime.start.p0(i64 8, ptr %7) #9
  %13 = load i32, ptr %4, align 4, !tbaa !7
  %14 = sext i32 %13 to i64
  %15 = call ptr @gv_calloc(i64 noundef %14, i64 noundef 4)
  store ptr %15, ptr %7, align 8, !tbaa !9
  call void @llvm.lifetime.start.p0(i64 8, ptr %8) #9
  call void @llvm.lifetime.start.p0(i64 8, ptr %9) #9
  call void @llvm.lifetime.start.p0(i64 4, ptr %10) #9
  store i32 0, ptr %5, align 4, !tbaa !7
  br label %16

16:                                               ; preds = %29, %2
  %17 = load i32, ptr %5, align 4, !tbaa !7
  %18 = load i32, ptr %4, align 4, !tbaa !7
  %19 = icmp slt i32 %17, %18
  br i1 %19, label %20, label %32

20:                                               ; preds = %16
  %21 = load ptr, ptr %3, align 8, !tbaa !3
  %22 = load i32, ptr %5, align 4, !tbaa !7
  %23 = sext i32 %22 to i64
  %24 = getelementptr inbounds %struct.vtx_data, ptr %21, i64 %23
  %25 = getelementptr inbounds nuw %struct.vtx_data, ptr %24, i32 0, i32 0
  %26 = load i64, ptr %25, align 8, !tbaa !13
  %27 = load i64, ptr %6, align 8, !tbaa !11
  %28 = add i64 %27, %26
  store i64 %28, ptr %6, align 8, !tbaa !11
  br label %29

29:                                               ; preds = %20
  %30 = load i32, ptr %5, align 4, !tbaa !7
  %31 = add nsw i32 %30, 1
  store i32 %31, ptr %5, align 4, !tbaa !7
  br label %16, !llvm.loop !29

32:                                               ; preds = %16
  call void @llvm.lifetime.start.p0(i64 8, ptr %11) #9
  %33 = load i64, ptr %6, align 8, !tbaa !11
  %34 = call ptr @gv_calloc(i64 noundef %33, i64 noundef 4)
  store ptr %34, ptr %11, align 8, !tbaa !28
  store i32 0, ptr %5, align 4, !tbaa !7
  br label %35

35:                                               ; preds = %106, %32
  %36 = load i32, ptr %5, align 4, !tbaa !7
  %37 = load i32, ptr %4, align 4, !tbaa !7
  %38 = icmp slt i32 %36, %37
  br i1 %38, label %39, label %109

39:                                               ; preds = %35
  %40 = load ptr, ptr %11, align 8, !tbaa !28
  %41 = load ptr, ptr %3, align 8, !tbaa !3
  %42 = load i32, ptr %5, align 4, !tbaa !7
  %43 = sext i32 %42 to i64
  %44 = getelementptr inbounds %struct.vtx_data, ptr %41, i64 %43
  %45 = getelementptr inbounds nuw %struct.vtx_data, ptr %44, i32 0, i32 2
  store ptr %40, ptr %45, align 8, !tbaa !21
  %46 = load ptr, ptr %3, align 8, !tbaa !3
  %47 = load i32, ptr %5, align 4, !tbaa !7
  %48 = load ptr, ptr %7, align 8, !tbaa !9
  call void @fill_neighbors_vec_unweighted(ptr noundef %46, i32 noundef %47, ptr noundef %48)
  %49 = load ptr, ptr %3, align 8, !tbaa !3
  %50 = load i32, ptr %5, align 4, !tbaa !7
  %51 = sext i32 %50 to i64
  %52 = getelementptr inbounds %struct.vtx_data, ptr %49, i64 %51
  %53 = getelementptr inbounds nuw %struct.vtx_data, ptr %52, i32 0, i32 0
  %54 = load i64, ptr %53, align 8, !tbaa !13
  %55 = sub i64 %54, 1
  store i64 %55, ptr %8, align 8, !tbaa !11
  call void @llvm.lifetime.start.p0(i64 8, ptr %12) #9
  store i64 1, ptr %12, align 8, !tbaa !11
  br label %56

56:                                               ; preds = %91, %39
  %57 = load i64, ptr %12, align 8, !tbaa !11
  %58 = load i64, ptr %8, align 8, !tbaa !11
  %59 = icmp ule i64 %57, %58
  br i1 %59, label %61, label %60

60:                                               ; preds = %56
  call void @llvm.lifetime.end.p0(i64 8, ptr %12) #9
  br label %94

61:                                               ; preds = %56
  %62 = load ptr, ptr %3, align 8, !tbaa !3
  %63 = load i32, ptr %5, align 4, !tbaa !7
  %64 = sext i32 %63 to i64
  %65 = getelementptr inbounds %struct.vtx_data, ptr %62, i64 %64
  %66 = getelementptr inbounds nuw %struct.vtx_data, ptr %65, i32 0, i32 1
  %67 = load ptr, ptr %66, align 8, !tbaa !16
  %68 = load i64, ptr %12, align 8, !tbaa !11
  %69 = getelementptr inbounds nuw i32, ptr %67, i64 %68
  %70 = load i32, ptr %69, align 4, !tbaa !7
  store i32 %70, ptr %10, align 4, !tbaa !7
  %71 = load ptr, ptr %3, align 8, !tbaa !3
  %72 = load i32, ptr %10, align 4, !tbaa !7
  %73 = sext i32 %72 to i64
  %74 = getelementptr inbounds %struct.vtx_data, ptr %71, i64 %73
  %75 = getelementptr inbounds nuw %struct.vtx_data, ptr %74, i32 0, i32 0
  %76 = load i64, ptr %75, align 8, !tbaa !13
  %77 = sub i64 %76, 1
  store i64 %77, ptr %9, align 8, !tbaa !11
  %78 = load i64, ptr %8, align 8, !tbaa !11
  %79 = load i64, ptr %9, align 8, !tbaa !11
  %80 = add i64 %78, %79
  %81 = load ptr, ptr %3, align 8, !tbaa !3
  %82 = load i32, ptr %10, align 4, !tbaa !7
  %83 = load ptr, ptr %7, align 8, !tbaa !9
  %84 = call i64 @common_neighbors(ptr noundef %81, i32 noundef %82, ptr noundef %83)
  %85 = mul i64 2, %84
  %86 = sub i64 %80, %85
  %87 = uitofp i64 %86 to float
  %88 = load ptr, ptr %11, align 8, !tbaa !28
  %89 = load i64, ptr %12, align 8, !tbaa !11
  %90 = getelementptr inbounds nuw float, ptr %88, i64 %89
  store float %87, ptr %90, align 4, !tbaa !30
  br label %91

91:                                               ; preds = %61
  %92 = load i64, ptr %12, align 8, !tbaa !11
  %93 = add i64 %92, 1
  store i64 %93, ptr %12, align 8, !tbaa !11
  br label %56, !llvm.loop !32

94:                                               ; preds = %60
  %95 = load ptr, ptr %3, align 8, !tbaa !3
  %96 = load i32, ptr %5, align 4, !tbaa !7
  %97 = load ptr, ptr %7, align 8, !tbaa !9
  call void @empty_neighbors_vec(ptr noundef %95, i32 noundef %96, ptr noundef %97)
  %98 = load ptr, ptr %3, align 8, !tbaa !3
  %99 = load i32, ptr %5, align 4, !tbaa !7
  %100 = sext i32 %99 to i64
  %101 = getelementptr inbounds %struct.vtx_data, ptr %98, i64 %100
  %102 = getelementptr inbounds nuw %struct.vtx_data, ptr %101, i32 0, i32 0
  %103 = load i64, ptr %102, align 8, !tbaa !13
  %104 = load ptr, ptr %11, align 8, !tbaa !28
  %105 = getelementptr inbounds nuw float, ptr %104, i64 %103
  store ptr %105, ptr %11, align 8, !tbaa !28
  br label %106

106:                                              ; preds = %94
  %107 = load i32, ptr %5, align 4, !tbaa !7
  %108 = add nsw i32 %107, 1
  store i32 %108, ptr %5, align 4, !tbaa !7
  br label %35, !llvm.loop !33

109:                                              ; preds = %35
  %110 = load ptr, ptr %7, align 8, !tbaa !9
  call void @free(ptr noundef %110) #9
  call void @llvm.lifetime.end.p0(i64 8, ptr %11) #9
  call void @llvm.lifetime.end.p0(i64 4, ptr %10) #9
  call void @llvm.lifetime.end.p0(i64 8, ptr %9) #9
  call void @llvm.lifetime.end.p0(i64 8, ptr %8) #9
  call void @llvm.lifetime.end.p0(i64 8, ptr %7) #9
  call void @llvm.lifetime.end.p0(i64 8, ptr %6) #9
  call void @llvm.lifetime.end.p0(i64 4, ptr %5) #9
  ret void
}