; Function Attrs: nounwind uwtable
define void @compute_new_weights(ptr noundef captures(none) %0, i32 noundef %1) local_unnamed_addr #2 {
  %3 = sext i32 %1 to i64
  %.not.i = icmp eq i32 %1, 0
  br i1 %.not.i, label %.thread.i48.thread, label %4

4:                                                ; preds = %2
  %mul.ov.i = icmp slt i32 %1, 0
  br i1 %mul.ov.i, label %5, label %8

5:                                                ; preds = %4
  %6 = load ptr, ptr @stderr, align 8, !tbaa !19
  %7 = tail call i32 (ptr, ptr, ...) @fprintf(ptr noundef %6, ptr noundef nonnull @.str, i64 noundef %3, i64 noundef 4) #18
  tail call fastcc void @graphviz_exit() #19
  unreachable

8:                                                ; preds = %4
  %9 = tail call noalias ptr @calloc(i64 noundef %3, i64 noundef 4) #17
  %10 = icmp eq ptr %9, null
  br i1 %10, label %11, label %.lr.ph.preheader

11:                                               ; preds = %8
  %12 = load ptr, ptr @stderr, align 8, !tbaa !19
  %13 = shl nuw nsw i64 %3, 2
  %14 = tail call i32 (ptr, ptr, ...) @fprintf(ptr noundef %12, ptr noundef nonnull @.str.1, i64 noundef %13) #18
  tail call fastcc void @graphviz_exit() #19
  unreachable

.thread.i48.thread:                               ; preds = %2
  %15 = tail call noalias ptr @calloc(i64 noundef 0, i64 noundef 4) #17
  br label %._crit_edge64

.lr.ph.preheader:                                 ; preds = %8
  %wide.trip.count = zext nneg i32 %1 to i64
  br label %.lr.ph

.lr.ph:                                           ; preds = %.lr.ph.preheader, %.lr.ph
  %indvars.iv = phi i64 [ 0, %.lr.ph.preheader ], [ %indvars.iv.next, %.lr.ph ]
  %.04255 = phi i64 [ 0, %.lr.ph.preheader ], [ %18, %.lr.ph ]
  %16 = getelementptr inbounds nuw %struct.vtx_data, ptr %0, i64 %indvars.iv
  %17 = load i64, ptr %16, align 8, !tbaa !3
  %18 = add i64 %17, %.04255
  %indvars.iv.next = add nuw nsw i64 %indvars.iv, 1
  %exitcond.not = icmp eq i64 %indvars.iv.next, %wide.trip.count
  br i1 %exitcond.not, label %._crit_edge, label %.lr.ph, !llvm.loop !27

._crit_edge:                                      ; preds = %.lr.ph
  %.not.i45 = icmp eq i64 %18, 0
  br i1 %.not.i45, label %.thread.i48, label %20

.thread.i48:                                      ; preds = %._crit_edge
  %19 = tail call noalias ptr @calloc(i64 noundef 0, i64 noundef 4) #17
  br label %.lr.ph63.preheader

20:                                               ; preds = %._crit_edge
  %mul.ov.i47 = icmp ugt i64 %18, 4611686018427387903
  br i1 %mul.ov.i47, label %21, label %24

21:                                               ; preds = %20
  %22 = load ptr, ptr @stderr, align 8, !tbaa !19
  %23 = tail call i32 (ptr, ptr, ...) @fprintf(ptr noundef %22, ptr noundef nonnull @.str, i64 noundef %18, i64 noundef 4) #18
  tail call fastcc void @graphviz_exit() #19
  unreachable

24:                                               ; preds = %20
  %25 = tail call noalias ptr @calloc(i64 noundef %18, i64 noundef 4) #17
  %26 = icmp eq ptr %25, null
  br i1 %26, label %27, label %.lr.ph63.preheader

27:                                               ; preds = %24
  %28 = load ptr, ptr @stderr, align 8, !tbaa !19
  %29 = shl nuw i64 %18, 2
  %30 = tail call i32 (ptr, ptr, ...) @fprintf(ptr noundef %28, ptr noundef nonnull @.str.1, i64 noundef %29) #18
  tail call fastcc void @graphviz_exit() #19
  unreachable

.lr.ph63.preheader:                               ; preds = %24, %.thread.i48
  %31 = phi ptr [ %19, %.thread.i48 ], [ %25, %24 ]
  %wide.trip.count71 = zext nneg i32 %1 to i64
  br label %.lr.ph63

.lr.ph63:                                         ; preds = %.lr.ph63.preheader, %empty_neighbors_vec.exit
  %indvars.iv68 = phi i64 [ 0, %.lr.ph63.preheader ], [ %indvars.iv.next69, %empty_neighbors_vec.exit ]
  %.04062 = phi ptr [ %31, %.lr.ph63.preheader ], [ %55, %empty_neighbors_vec.exit ]
  %32 = getelementptr inbounds nuw %struct.vtx_data, ptr %0, i64 %indvars.iv68
  %33 = getelementptr inbounds nuw i8, ptr %32, i64 16
  store ptr %.04062, ptr %33, align 8, !tbaa !18
  %34 = load i64, ptr %32, align 8, !tbaa !3
  %35 = icmp ugt i64 %34, 1
  br i1 %35, label %.lr.ph.i, label %fill_neighbors_vec_unweighted.exit

.lr.ph.i:                                         ; preds = %.lr.ph63
  %36 = getelementptr inbounds nuw i8, ptr %32, i64 8
  %37 = load ptr, ptr %36, align 8, !tbaa !11
  br label %38

38:                                               ; preds = %38, %.lr.ph.i
  %.07.i = phi i64 [ 1, %.lr.ph.i ], [ %43, %38 ]
  %39 = getelementptr inbounds nuw i32, ptr %37, i64 %.07.i
  %40 = load i32, ptr %39, align 4, !tbaa !12
  %41 = sext i32 %40 to i64
  %42 = getelementptr inbounds i32, ptr %9, i64 %41
  store i32 1, ptr %42, align 4, !tbaa !12
  %43 = add nuw i64 %.07.i, 1
  %exitcond.not.i = icmp eq i64 %43, %34
  br i1 %exitcond.not.i, label %fill_neighbors_vec_unweighted.exit, label %38, !llvm.loop !16

fill_neighbors_vec_unweighted.exit:               ; preds = %38, %.lr.ph63
  %.not57 = icmp eq i64 %34, 1
  br i1 %.not57, label %empty_neighbors_vec.exit, label %.lr.ph59

.lr.ph59:                                         ; preds = %fill_neighbors_vec_unweighted.exit
  %44 = getelementptr inbounds nuw i8, ptr %32, i64 8
  %45 = load ptr, ptr %44, align 8, !tbaa !11
  %46 = add i64 %34, -2
  %umax = tail call i64 @llvm.umax.i64(i64 %34, i64 2)
  br label %56

._crit_edge60:                                    ; preds = %common_neighbors.exit
  br i1 %35, label %.lr.ph.i50, label %empty_neighbors_vec.exit

.lr.ph.i50:                                       ; preds = %._crit_edge60
  %47 = getelementptr inbounds nuw i8, ptr %32, i64 8
  %48 = load ptr, ptr %47, align 8, !tbaa !11
  br label %49

49:                                               ; preds = %49, %.lr.ph.i50
  %.07.i51 = phi i64 [ 1, %.lr.ph.i50 ], [ %54, %49 ]
  %50 = getelementptr inbounds nuw i32, ptr %48, i64 %.07.i51
  %51 = load i32, ptr %50, align 4, !tbaa !12
  %52 = sext i32 %51 to i64
  %53 = getelementptr inbounds i32, ptr %9, i64 %52
  store i32 0, ptr %53, align 4, !tbaa !12
  %54 = add nuw i64 %.07.i51, 1
  %exitcond.not.i52 = icmp eq i64 %54, %34
  br i1 %exitcond.not.i52, label %empty_neighbors_vec.exit, label %49, !llvm.loop !17

empty_neighbors_vec.exit:                         ; preds = %49, %fill_neighbors_vec_unweighted.exit, %._crit_edge60
  %55 = getelementptr inbounds nuw float, ptr %.04062, i64 %34
  %indvars.iv.next69 = add nuw nsw i64 %indvars.iv68, 1
  %exitcond72.not = icmp eq i64 %indvars.iv.next69, %wide.trip.count71
  br i1 %exitcond72.not, label %._crit_edge64, label %.lr.ph63, !llvm.loop !28

56:                                               ; preds = %.lr.ph59, %common_neighbors.exit
  %.058 = phi i64 [ 1, %.lr.ph59 ], [ %79, %common_neighbors.exit ]
  %57 = getelementptr inbounds nuw i32, ptr %45, i64 %.058
  %58 = load i32, ptr %57, align 4, !tbaa !12
  %59 = sext i32 %58 to i64
  %60 = getelementptr inbounds %struct.vtx_data, ptr %0, i64 %59
  %61 = load i64, ptr %60, align 8, !tbaa !3
  %62 = icmp ugt i64 %61, 1
  br i1 %62, label %.lr.ph.i53, label %common_neighbors.exit

.lr.ph.i53:                                       ; preds = %56
  %63 = getelementptr inbounds nuw i8, ptr %60, i64 8
  %64 = load ptr, ptr %63, align 8, !tbaa !11
  br label %65

65:                                               ; preds = %65, %.lr.ph.i53
  %.012.i = phi i64 [ 1, %.lr.ph.i53 ], [ %73, %65 ]
  %.01011.i = phi i64 [ 0, %.lr.ph.i53 ], [ %spec.select.i, %65 ]
  %66 = getelementptr inbounds nuw i32, ptr %64, i64 %.012.i
  %67 = load i32, ptr %66, align 4, !tbaa !12
  %68 = sext i32 %67 to i64
  %69 = getelementptr inbounds i32, ptr %9, i64 %68
  %70 = load i32, ptr %69, align 4, !tbaa !12
  %71 = icmp sgt i32 %70, 0
  %72 = zext i1 %71 to i64
  %spec.select.i = add i64 %.01011.i, %72
  %73 = add nuw i64 %.012.i, 1
  %exitcond.not.i54 = icmp eq i64 %73, %61
  br i1 %exitcond.not.i54, label %common_neighbors.exit.loopexit, label %65, !llvm.loop !14

common_neighbors.exit.loopexit:                   ; preds = %65
  %74 = shl i64 %spec.select.i, 1
  br label %common_neighbors.exit

common_neighbors.exit:                            ; preds = %common_neighbors.exit.loopexit, %56
  %.010.lcssa.i = phi i64 [ 0, %56 ], [ %74, %common_neighbors.exit.loopexit ]
  %75 = add i64 %46, %61
  %76 = sub i64 %75, %.010.lcssa.i
  %77 = uitofp i64 %76 to float
  %78 = getelementptr inbounds nuw float, ptr %.04062, i64 %.058
  store float %77, ptr %78, align 4, !tbaa !29
  %79 = add nuw i64 %.058, 1
  %exitcond67 = icmp eq i64 %79, %umax
  br i1 %exitcond67, label %._crit_edge60, label %56, !llvm.loop !31

._crit_edge64:                                    ; preds = %empty_neighbors_vec.exit, %.thread.i48.thread
  %80 = phi ptr [ %15, %.thread.i48.thread ], [ %9, %empty_neighbors_vec.exit ]
  tail call void @free(ptr noundef %80) #20
  ret void
}